target datalayout = "e-m:e-p270:32:32-p271:32:32-p272:64:64-i64:64-i128:128-f80:128-n8:16:32:64-S128"
target triple = "x86_64-pc-linux-gnu"

%struct.dtlink_s_ = type { ptr, %union.anon }
%union.anon = type { ptr }
%struct.item = type { %struct.dtlink_s_, [2 x i32], i32 }

@stderr = external global ptr, align 8
@.str = private unnamed_addr constant [58 x i8] c"integer overflow when trying to allocate %zu * %zu bytes\0A\00", align 1
@.str.1 = private unnamed_addr constant [49 x i8] c"out of memory when trying to allocate %zu bytes\0A\00", align 1

; Function Attrs: inlinehint nounwind uwtable
define internal ptr @gv_calloc(i64 noundef %0, i64 noundef %1) #4 {
  %3 = alloca i64, align 8
  %4 = alloca i64, align 8
  %5 = alloca ptr, align 8
  store i64 %0, ptr %3, align 8, !tbaa !19
  store i64 %1, ptr %4, align 8, !tbaa !19
  %6 = load i64, ptr %3, align 8, !tbaa !19
  %7 = icmp ugt i64 %6, 0
  br i1 %7, label %8, label %18

8:                                                ; preds = %2
  %9 = load i64, ptr %3, align 8, !tbaa !19
  %10 = udiv i64 -1, %9
  %11 = load i64, ptr %4, align 8, !tbaa !19
  %12 = icmp ult i64 %10, %11
  br i1 %12, label %13, label %18

13:                                               ; preds = %8
  %14 = load ptr, ptr @stderr, align 8, !tbaa !61
  %15 = load i64, ptr %3, align 8, !tbaa !19
  %16 = load i64, ptr %4, align 8, !tbaa !19
  %17 = call i32 (ptr, ptr, ...) @fprintf(ptr noundef %14, ptr noundef @.str, i64 noundef %15, i64 noundef %16) #12
  call void @graphviz_exit(i32 noundef 1) #13
  unreachable

18:                                               ; preds = %8, %2
  call void @llvm.lifetime.start.p0(i64 8, ptr %5) #12
  %19 = load i64, ptr %3, align 8, !tbaa !19
  %20 = load i64, ptr %4, align 8, !tbaa !19
  %21 = call noalias ptr @calloc(i64 noundef %19, i64 noundef %20) #14
  store ptr %21, ptr %5, align 8, !tbaa !18
  %22 = load i64, ptr %3, align 8, !tbaa !19
  %23 = icmp ugt i64 %22, 0
  br i1 %23, label %24, label %36

24:                                               ; preds = %18
  %25 = load i64, ptr %4, align 8, !tbaa !19
  %26 = icmp ugt i64 %25, 0
  br i1 %26, label %27, label %36

27:                                               ; preds = %24
  %28 = load ptr, ptr %5, align 8, !tbaa !18
  %29 = icmp eq ptr %28, null
  br i1 %29, label %30, label %36

30:                                               ; preds = %27
  %31 = load ptr, ptr @stderr, align 8, !tbaa !61
  %32 = load i64, ptr %3, align 8, !tbaa !19
  %33 = load i64, ptr %4, align 8, !tbaa !19
  %34 = mul i64 %32, %33
  %35 = call i32 (ptr, ptr, ...) @fprintf(ptr noundef %31, ptr noundef @.str.1, i64 noundef %34) #12
  call void @graphviz_exit(i32 noundef 1) #13
  unreachable

36:                                               ; preds = %27, %24, %18
  %37 = load ptr, ptr %5, align 8, !tbaa !18
  call void @llvm.lifetime.end.p0(i64 8, ptr %5) #12
  ret ptr %37
}

; Function Attrs: inlinehint nounwind uwtable
define internal ptr @gv_alloc(i64 noundef %0) #4 {
  %2 = alloca i64, align 8
  store i64 %0, ptr %2, align 8, !tbaa !19
  %3 = load i64, ptr %2, align 8, !tbaa !19
  %4 = call ptr @gv_calloc(i64 noundef 1, i64 noundef %3)
  ret ptr %4
}

; Function Attrs: nounwind uwtable
define internal ptr @newItem(ptr noundef %0, ptr noundef %1) #0 {
  %3 = alloca ptr, align 8
  %4 = alloca ptr, align 8
  %5 = alloca ptr, align 8
  %6 = alloca ptr, align 8
  store ptr %0, ptr %3, align 8, !tbaa !18
  store ptr %1, ptr %4, align 8, !tbaa !174
  call void @llvm.lifetime.start.p0(i64 8, ptr %5) #12
  %7 = load ptr, ptr %3, align 8, !tbaa !18
  store ptr %7, ptr %5, align 8, !tbaa !18
  call void @llvm.lifetime.start.p0(i64 8, ptr %6) #12
  %8 = call ptr @gv_alloc(i64 noundef 32)
  store ptr %8, ptr %6, align 8, !tbaa !18
  %9 = load ptr, ptr %5, align 8, !tbaa !18
  %10 = getelementptr inbounds nuw %struct.item, ptr %9, i32 0, i32 1
  %11 = getelementptr inbounds [2 x i32], ptr %10, i64 0, i64 0
  %12 = load i32, ptr %11, align 8, !tbaa !33
  %13 = load ptr, ptr %6, align 8, !tbaa !18
  %14 = getelementptr inbounds nuw %struct.item, ptr %13, i32 0, i32 1
  %15 = getelementptr inbounds [2 x i32], ptr %14, i64 0, i64 0
  store i32 %12, ptr %15, align 8, !tbaa !33
  %16 = load ptr, ptr %5, align 8, !tbaa !18
  %17 = getelementptr inbounds nuw %struct.item, ptr %16, i32 0, i32 1
  %18 = getelementptr inbounds [2 x i32], ptr %17, i64 0, i64 1
  %19 = load i32, ptr %18, align 4, !tbaa !33
  %20 = load ptr, ptr %6, align 8, !tbaa !18
  %21 = getelementptr inbounds nuw %struct.item, ptr %20, i32 0, i32 1
  %22 = getelementptr inbounds [2 x i32], ptr %21, i64 0, i64 1
  store i32 %19, ptr %22, align 4, !tbaa !33
  %23 = load ptr, ptr %5, align 8, !tbaa !18
  %24 = getelementptr inbounds nuw %struct.item, ptr %23, i32 0, i32 2
  %25 = load i32, ptr %24, align 8, !tbaa !168
  %26 = load ptr, ptr %6, align 8, !tbaa !18
  %27 = getelementptr inbounds nuw %struct.item, ptr %26, i32 0, i32 2
  store i32 %25, ptr %27, align 8, !tbaa !168
  %28 = load ptr, ptr %6, align 8, !tbaa !18
  call void @llvm.lifetime.end.p0(i64 8, ptr %6) #12
  call void @llvm.lifetime.end.p0(i64 8, ptr %5) #12
  ret ptr %28
}