; Function Attrs: nofree nounwind uwtable
define internal noalias noundef ptr @newItem(ptr noundef readonly captures(none) %0, ptr readnone captures(none) %1) #10 {
  %3 = tail call noalias dereferenceable_or_null(32) ptr @calloc(i64 noundef 1, i64 noundef range(i64 4, 57) 32) #19
  %4 = icmp eq ptr %3, null
  br i1 %4, label %5, label %gv_alloc.exit

5:                                                ; preds = %2
  %6 = load ptr, ptr @stderr, align 8, !tbaa !27
  %7 = tail call i32 (ptr, ptr, ...) @fprintf(ptr noundef %6, ptr noundef nonnull @.str.1, i64 noundef 32) #20
  tail call fastcc void @graphviz_exit() #21
  unreachable

gv_alloc.exit:                                    ; preds = %2
  %8 = getelementptr inbounds nuw i8, ptr %0, i64 16
  %9 = load i32, ptr %8, align 8, !tbaa !42
  %10 = getelementptr inbounds nuw i8, ptr %3, i64 16
  store i32 %9, ptr %10, align 8, !tbaa !42
  %11 = getelementptr inbounds nuw i8, ptr %0, i64 20
  %12 = load i32, ptr %11, align 4, !tbaa !42
  %13 = getelementptr inbounds nuw i8, ptr %3, i64 20
  store i32 %12, ptr %13, align 4, !tbaa !42
  %14 = getelementptr inbounds nuw i8, ptr %0, i64 24
  %15 = load i32, ptr %14, align 8, !tbaa !52
  %16 = getelementptr inbounds nuw i8, ptr %3, i64 24
  store i32 %15, ptr %16, align 8, !tbaa !52
  ret ptr %3
}